target datalayout = "e-m:e-p270:32:32-p271:32:32-p272:64:64-i64:64-i128:128-f80:128-n8:16:32:64-S128"
target triple = "x86_64-pc-linux-gnu"

; Function Attrs: mustprogress nounwind uwtable
define noundef double @_ZNK6icu_775units14UnitsConverter11scaleToBaseEdPdi(ptr noundef nonnull align 8 dereferenceable(520) %0, double noundef %1, ptr noundef %2, i32 noundef %3) #0 align 2 {
  %5 = alloca ptr, align 8
  %6 = alloca double, align 8
  %7 = alloca ptr, align 8
  %8 = alloca i32, align 4
  %9 = alloca i32, align 4
  store ptr %0, ptr %5, align 8, !tbaa !92
  store double %1, ptr %6, align 8, !tbaa !32
  store ptr %2, ptr %7, align 8, !tbaa !34
  store i32 %3, ptr %8, align 4, !tbaa !14
  %10 = load double, ptr %6, align 8, !tbaa !32
  %11 = fcmp olt double %10, 0.000000e+00
  br i1 %11, label %12, label %15

12:                                               ; preds = %4
  %13 = load double, ptr %6, align 8, !tbaa !32
  %14 = fneg double %13
  store double %14, ptr %6, align 8, !tbaa !32
  br label %15

15:                                               ; preds = %12, %4
  %16 = load double, ptr %6, align 8, !tbaa !32
  %17 = fadd double %16, 5.000000e-01
  store double %17, ptr %6, align 8, !tbaa !32
  %18 = load double, ptr %6, align 8, !tbaa !32
  %19 = load i32, ptr %8, align 4, !tbaa !14
  %20 = sitofp i32 %19 to double
  %21 = fcmp ogt double %18, %20
  br i1 %21, label %22, label %25

22:                                               ; preds = %15
  %23 = load i32, ptr %8, align 4, !tbaa !14
  %24 = sitofp i32 %23 to double
  store double %24, ptr %6, align 8, !tbaa !32
  br label %25

25:                                               ; preds = %22, %15
  call void @llvm.lifetime.start.p0(i64 4, ptr %9) #12
  %26 = load double, ptr %6, align 8, !tbaa !32
  %27 = fptosi double %26 to i32
  store i32 %27, ptr %9, align 4, !tbaa !14
  %28 = load ptr, ptr %7, align 8, !tbaa !34
  %29 = load i32, ptr %9, align 4, !tbaa !14
  %30 = sext i32 %29 to i64
  %31 = getelementptr inbounds double, ptr %28, i64 %30
  %32 = load double, ptr %31, align 8, !tbaa !32
  %33 = load ptr, ptr %7, align 8, !tbaa !34
  %34 = load i32, ptr %9, align 4, !tbaa !14
  %35 = add nsw i32 %34, 1
  %36 = sext i32 %35 to i64
  %37 = getelementptr inbounds double, ptr %33, i64 %36
  %38 = load double, ptr %37, align 8, !tbaa !32
  %39 = fadd double %32, %38
  %40 = fdiv double %39, 2.000000e+00
  call void @llvm.lifetime.end.p0(i64 4, ptr %9) #12
  ret double %40
}