; Function Attrs: mustprogress nofree norecurse nosync nounwind willreturn memory(argmem: read) uwtable
define noundef double @_ZNK6icu_775units14UnitsConverter11scaleToBaseEdPdi(ptr noundef nonnull readnone align 8 captures(none) dereferenceable(520) %0, double noundef %1, ptr noundef readonly captures(none) %2, i32 noundef %3) local_unnamed_addr #15 align 2 {
  %5 = fcmp olt double %1, 0.000000e+00
  %6 = fneg double %1
  %.0 = select i1 %5, double %6, double %1
  %7 = fadd double %.0, 5.000000e-01
  %8 = sitofp i32 %3 to double
  %9 = fcmp ogt double %7, %8
  %.1 = select i1 %9, double %8, double %7
  %10 = fptosi double %.1 to i32
  %11 = sext i32 %10 to i64
  %12 = getelementptr inbounds double, ptr %2, i64 %11
  %13 = load double, ptr %12, align 8, !tbaa !20
  %14 = getelementptr i8, ptr %12, i64 8
  %15 = load double, ptr %14, align 8, !tbaa !20
  %16 = fadd double %13, %15
  %17 = fmul double %16, 5.000000e-01
  ret double %17
}